target datalayout = "e-m:e-p270:32:32-p271:32:32-p272:64:64-i64:64-i128:128-f80:128-n8:16:32:64-S128"
target triple = "x86_64-pc-linux-gnu"

%struct.CRYPTO_REF_COUNT = type { i32 }
%struct.crypto_ex_data_st = type { ptr, ptr }
%struct.OSSL_TIME = type { i64 }
%struct.ssl_session_st = type { i32, i64, [64 x i8], [512 x i8], i64, [32 x i8], i64, [32 x i8], ptr, ptr, i32, ptr, ptr, ptr, i64, %struct.OSSL_TIME, %struct.OSSL_TIME, %struct.OSSL_TIME, i32, ptr, i64, i32, %struct.crypto_ex_data_st, %struct.anon.5, ptr, ptr, i64, i32, ptr, ptr, ptr, %struct.CRYPTO_REF_COUNT }
%struct.anon.5 = type { ptr, ptr, i64, i64, i32, i32, ptr, i64, i8 }

; Function Attrs: nounwind uwtable
define internal i32 @ssl_session_cmp(ptr noundef %0, ptr noundef %1) #0 {
  %3 = alloca i32, align 4
  %4 = alloca ptr, align 8
  %5 = alloca ptr, align 8
  store ptr %0, ptr %4, align 8, !tbaa !277
  store ptr %1, ptr %5, align 8, !tbaa !277
  %6 = load ptr, ptr %4, align 8, !tbaa !277
  %7 = getelementptr inbounds nuw %struct.ssl_session_st, ptr %6, i32 0, i32 0
  %8 = load i32, ptr %7, align 8, !tbaa !272
  %9 = load ptr, ptr %5, align 8, !tbaa !277
  %10 = getelementptr inbounds nuw %struct.ssl_session_st, ptr %9, i32 0, i32 0
  %11 = load i32, ptr %10, align 8, !tbaa !272
  %12 = icmp ne i32 %8, %11
  br i1 %12, label %13, label %14

13:                                               ; preds = %2
  store i32 1, ptr %3, align 4
  br label %34

14:                                               ; preds = %2
  %15 = load ptr, ptr %4, align 8, !tbaa !277
  %16 = getelementptr inbounds nuw %struct.ssl_session_st, ptr %15, i32 0, i32 4
  %17 = load i64, ptr %16, align 8, !tbaa !275
  %18 = load ptr, ptr %5, align 8, !tbaa !277
  %19 = getelementptr inbounds nuw %struct.ssl_session_st, ptr %18, i32 0, i32 4
  %20 = load i64, ptr %19, align 8, !tbaa !275
  %21 = icmp ne i64 %17, %20
  br i1 %21, label %22, label %23

22:                                               ; preds = %14
  store i32 1, ptr %3, align 4
  br label %34

23:                                               ; preds = %14
  %24 = load ptr, ptr %4, align 8, !tbaa !277
  %25 = getelementptr inbounds nuw %struct.ssl_session_st, ptr %24, i32 0, i32 5
  %26 = getelementptr inbounds [32 x i8], ptr %25, i64 0, i64 0
  %27 = load ptr, ptr %5, align 8, !tbaa !277
  %28 = getelementptr inbounds nuw %struct.ssl_session_st, ptr %27, i32 0, i32 5
  %29 = getelementptr inbounds [32 x i8], ptr %28, i64 0, i64 0
  %30 = load ptr, ptr %4, align 8, !tbaa !277
  %31 = getelementptr inbounds nuw %struct.ssl_session_st, ptr %30, i32 0, i32 4
  %32 = load i64, ptr %31, align 8, !tbaa !275
  %33 = call i32 @memcmp(ptr noundef %26, ptr noundef %29, i64 noundef %32) #10
  store i32 %33, ptr %3, align 4
  br label %34

34:                                               ; preds = %23, %22, %13
  %35 = load i32, ptr %3, align 4
  ret i32 %35
}