; Function Attrs: mustprogress nofree nounwind willreturn memory(argmem: read) uwtable
define internal i32 @ssl_session_cmp(ptr noundef readonly captures(none) %0, ptr noundef readonly captures(none) %1) #12 {
  %3 = load i32, ptr %0, align 8, !tbaa !250
  %4 = load i32, ptr %1, align 8, !tbaa !250
  %.not = icmp eq i32 %3, %4
  br i1 %.not, label %5, label %14

5:                                                ; preds = %2
  %6 = getelementptr inbounds nuw i8, ptr %0, i64 592
  %7 = load i64, ptr %6, align 8, !tbaa !253
  %8 = getelementptr inbounds nuw i8, ptr %1, i64 592
  %9 = load i64, ptr %8, align 8, !tbaa !253
  %.not8 = icmp eq i64 %7, %9
  br i1 %.not8, label %10, label %14

10:                                               ; preds = %5
  %11 = getelementptr inbounds nuw i8, ptr %0, i64 600
  %12 = getelementptr inbounds nuw i8, ptr %1, i64 600
  %13 = tail call i32 @memcmp(ptr noundef nonnull %11, ptr noundef nonnull %12, i64 noundef %7) #21
  br label %14

14:                                               ; preds = %5, %2, %10
  %.0 = phi i32 [ %13, %10 ], [ 1, %2 ], [ 1, %5 ]
  ret i32 %.0
}